target datalayout = "e-m:e-p270:32:32-p271:32:32-p272:64:64-i64:64-i128:128-f80:128-n8:16:32:64-S128"
target triple = "x86_64-pc-linux-gnu"

%"class.nanobind::handle" = type { ptr }
%class.anon.21 = type { i8 }

; Function Attrs: alwaysinline mustprogress nounwind optsize uwtable
define linkonce_odr hidden void @_ZN8nanobind6handleC2EPK7_object(ptr noundef nonnull align 8 dereferenceable(8) %0, ptr noundef %1) unnamed_addr #5 comdat align 2 {
  %3 = alloca ptr, align 8
  %4 = alloca ptr, align 8
  store ptr %0, ptr %3, align 8, !tbaa !12
  store ptr %1, ptr %4, align 8, !tbaa !3
  %5 = load ptr, ptr %3, align 8
  %6 = getelementptr inbounds nuw %"class.nanobind::handle", ptr %5, i32 0, i32 0
  %7 = load ptr, ptr %4, align 8, !tbaa !3
  store ptr %7, ptr %6, align 8, !tbaa !14
  ret void
}

; Function Attrs: alwaysinline mustprogress nounwind optsize uwtable
define linkonce_odr hidden noundef ptr @_ZNK8nanobind6handle3ptrEv(ptr noundef nonnull align 8 dereferenceable(8) %0) #5 comdat align 2 {
  %2 = alloca ptr, align 8
  store ptr %0, ptr %2, align 8, !tbaa !12
  %3 = load ptr, ptr %2, align 8
  %4 = getelementptr inbounds nuw %"class.nanobind::handle", ptr %3, i32 0, i32 0
  %5 = load ptr, ptr %4, align 8, !tbaa !14
  ret ptr %5
}

; Function Attrs: alwaysinline mustprogress nounwind optsize uwtable
define linkonce_odr hidden ptr @_ZN8nanobind6detail11type_casterIiiE8from_cppEiNS_9rv_policyEPNS0_12cleanup_listE(i32 noundef %0, i32 noundef %1, ptr noundef %2) #5 comdat align 2 personality ptr @__gxx_personality_v0 {
  %4 = alloca %"class.nanobind::handle", align 8
  %5 = alloca i32, align 4
  %6 = alloca i32, align 4
  %7 = alloca ptr, align 8
  store i32 %0, ptr %5, align 4, !tbaa !83
  store i32 %1, ptr %6, align 4, !tbaa !77
  store ptr %2, ptr %7, align 8, !tbaa !79
  %8 = load i32, ptr %5, align 4, !tbaa !83
  %9 = sext i32 %8 to i64
  %10 = invoke ptr @PyLong_FromLong(i64 noundef %9) #14
          to label %11 unwind label %15

11:                                               ; preds = %3
  invoke void @_ZN8nanobind6handleC2EPK7_object(ptr noundef nonnull align 8 dereferenceable(8) %4, ptr noundef %10) #14
          to label %12 unwind label %15

12:                                               ; preds = %11
  %13 = getelementptr inbounds nuw %"class.nanobind::handle", ptr %4, i32 0, i32 0
  %14 = load ptr, ptr %13, align 8
  ret ptr %14

15:                                               ; preds = %11, %3
  %16 = landingpad { ptr, i32 }
          catch ptr null
  %17 = extractvalue { ptr, i32 } %16, 0
  call void @__clang_call_terminate(ptr %17) #17
  unreachable
}

; Function Attrs: inlinehint mustprogress nounwind optsize uwtable
define internal noundef i32 @"_ZZZL27nanobind_init_test_eval_extRN8nanobind7module_EENK3$_0clEvENKUlvE_clEv"(ptr noundef nonnull align 1 dereferenceable(1) %0) #10 align 2 {
  %2 = alloca ptr, align 8
  store ptr %0, ptr %2, align 8, !tbaa !32
  ret i32 42
}

; Function Attrs: alwaysinline mustprogress optsize uwtable
define internal noundef ptr @"_ZZN8nanobind6detail11func_createILb1ELb1EZZL27nanobind_init_test_eval_extRNS_7module_EENK3$_0clEvEUlvE_iJETpTnmJEJEEEP7_objectOT1_PFT2_DpT3_ESt16integer_sequenceImJXspT4_EEEDpRKT5_ENKUlPvPS7_PhNS_9rv_policyEPNS0_12cleanup_listEE_clESL_SM_SN_SO_SQ_"(ptr noundef nonnull align 1 dereferenceable(1) %0, ptr noundef %1, ptr noundef %2, ptr noundef %3, i32 noundef %4, ptr noundef %5) #3 align 2 {
  %7 = alloca ptr, align 8
  %8 = alloca ptr, align 8
  %9 = alloca ptr, align 8
  %10 = alloca ptr, align 8
  %11 = alloca i32, align 4
  %12 = alloca ptr, align 8
  %13 = alloca ptr, align 8
  %14 = alloca ptr, align 8
  %15 = alloca %"class.nanobind::handle", align 8
  store ptr %0, ptr %7, align 8, !tbaa !32
  store ptr %1, ptr %8, align 8, !tbaa !32
  store ptr %2, ptr %9, align 8, !tbaa !40
  store ptr %3, ptr %10, align 8, !tbaa !24
  store i32 %4, ptr %11, align 4, !tbaa !77
  store ptr %5, ptr %12, align 8, !tbaa !79
  call void @llvm.lifetime.start.p0(i64 8, ptr %13) #15
  %16 = load ptr, ptr %8, align 8, !tbaa !32
  store ptr %16, ptr %13, align 8, !tbaa !92
  call void @llvm.lifetime.start.p0(i64 8, ptr %14) #15
  call void @llvm.lifetime.start.p0(i64 8, ptr %15) #15
  %17 = load ptr, ptr %13, align 8, !tbaa !92
  %18 = call noundef i32 @"_ZZZL27nanobind_init_test_eval_extRN8nanobind7module_EENK3$_0clEvENKUlvE_clEv"(ptr noundef nonnull align 1 dereferenceable(1) %17) #14
  %19 = load i32, ptr %11, align 4, !tbaa !77
  %20 = load ptr, ptr %12, align 8, !tbaa !79
  %21 = call ptr @_ZN8nanobind6detail11type_casterIiiE8from_cppEiNS_9rv_policyEPNS0_12cleanup_listE(i32 noundef %18, i32 noundef %19, ptr noundef %20) #16
  %22 = getelementptr inbounds nuw %"class.nanobind::handle", ptr %15, i32 0, i32 0
  store ptr %21, ptr %22, align 8
  %23 = call noundef ptr @_ZNK8nanobind6handle3ptrEv(ptr noundef nonnull align 8 dereferenceable(8) %15) #14
  store ptr %23, ptr %14, align 8, !tbaa !3
  call void @llvm.lifetime.end.p0(i64 8, ptr %15) #15
  %24 = load ptr, ptr %14, align 8, !tbaa !3
  call void @llvm.lifetime.end.p0(i64 8, ptr %14) #15
  call void @llvm.lifetime.end.p0(i64 8, ptr %13) #15
  ret ptr %24
}

; Function Attrs: inlinehint mustprogress optsize uwtable
define internal noundef ptr @"_ZZN8nanobind6detail11func_createILb1ELb1EZZL27nanobind_init_test_eval_extRNS_7module_EENK3$_0clEvEUlvE_iJETpTnmJEJEEEP7_objectOT1_PFT2_DpT3_ESt16integer_sequenceImJXspT4_EEEDpRKT5_ENUlPvPS7_PhNS_9rv_policyEPNS0_12cleanup_listEE_8__invokeESL_SM_SN_SO_SQ_"(ptr noundef %0, ptr noundef %1, ptr noundef %2, i32 noundef %3, ptr noundef %4) #9 align 2 {
  %6 = alloca ptr, align 8
  %7 = alloca ptr, align 8
  %8 = alloca ptr, align 8
  %9 = alloca i32, align 4
  %10 = alloca ptr, align 8
  %11 = alloca %class.anon.21, align 1
  store ptr %0, ptr %6, align 8, !tbaa !32
  store ptr %1, ptr %7, align 8, !tbaa !40
  store ptr %2, ptr %8, align 8, !tbaa !24
  store i32 %3, ptr %9, align 4, !tbaa !77
  store ptr %4, ptr %10, align 8, !tbaa !79
  %12 = load ptr, ptr %6, align 8, !tbaa !32
  %13 = load ptr, ptr %7, align 8, !tbaa !40
  %14 = load ptr, ptr %8, align 8, !tbaa !24
  %15 = load i32, ptr %9, align 4, !tbaa !77
  %16 = load ptr, ptr %10, align 8, !tbaa !79
  %17 = call noundef ptr @"_ZZN8nanobind6detail11func_createILb1ELb1EZZL27nanobind_init_test_eval_extRNS_7module_EENK3$_0clEvEUlvE_iJETpTnmJEJEEEP7_objectOT1_PFT2_DpT3_ESt16integer_sequenceImJXspT4_EEEDpRKT5_ENKUlPvPS7_PhNS_9rv_policyEPNS0_12cleanup_listEE_clESL_SM_SN_SO_SQ_"(ptr noundef nonnull align 1 dereferenceable(1) %11, ptr noundef %12, ptr noundef %13, ptr noundef %14, i32 noundef %15, ptr noundef %16) #14
  ret ptr %17
}